target datalayout = "e-m:e-p270:32:32-p271:32:32-p272:64:64-i64:64-i128:128-f80:128-n8:16:32:64-S128"
target triple = "x86_64-pc-linux-gnu"

%struct.anon = type { i32, i32 }
%union.ImGL3WProcs = type { [59 x ptr] }
%struct.anon.0 = type { ptr, ptr, ptr, ptr, ptr, ptr, ptr, ptr, ptr, ptr, ptr, ptr, ptr, ptr, ptr, ptr, ptr, ptr, ptr, ptr, ptr, ptr, ptr, ptr, ptr, ptr, ptr, ptr, ptr, ptr, ptr, ptr, ptr, ptr, ptr, ptr, ptr, ptr, ptr, ptr, ptr, ptr, ptr, ptr, ptr, ptr, ptr, ptr, ptr, ptr, ptr, ptr, ptr, ptr, ptr, ptr, ptr, ptr, ptr }

@_ZL7version = internal global %struct.anon zeroinitializer, align 4
@imgl3wProcs = dso_local global %union.ImGL3WProcs zeroinitializer, align 8
@.str.3 = private unnamed_addr constant [6 x i8] c"%d.%d\00", align 1
@_ZL6libegl = internal global ptr null, align 8
@.str.25 = private unnamed_addr constant [18 x i8] c"eglGetProcAddress\00", align 1
@_ZL19gl_get_proc_address = internal global ptr null, align 8
@_ZL6libglx = internal global ptr null, align 8
@.str.26 = private unnamed_addr constant [21 x i8] c"glXGetProcAddressARB\00", align 1
@_ZL5libgl = internal global ptr null, align 8
@.str.27 = private unnamed_addr constant [12 x i8] c"libEGL.so.1\00", align 1
@.str.28 = private unnamed_addr constant [12 x i8] c"libGLX.so.0\00", align 1
@.str.29 = private unnamed_addr constant [15 x i8] c"libOpenGL.so.0\00", align 1
@.str.30 = private unnamed_addr constant [9 x i8] c"libGL.so\00", align 1
@.str.31 = private unnamed_addr constant [11 x i8] c"libGL.so.1\00", align 1
@.str.32 = private unnamed_addr constant [11 x i8] c"libGL.so.3\00", align 1

; Function Attrs: mustprogress nounwind uwtable
define internal noundef i32 @_ZL17is_library_loadedPKcPPv(ptr noundef %0, ptr noundef %1) #3 {
  %3 = alloca ptr, align 8
  %4 = alloca ptr, align 8
  store ptr %0, ptr %3, align 8, !tbaa !10
  store ptr %1, ptr %4, align 8, !tbaa !8
  %5 = load ptr, ptr %3, align 8, !tbaa !10
  %6 = call ptr @dlopen(ptr noundef %5, i32 noundef 5) #11
  %7 = load ptr, ptr %4, align 8, !tbaa !8
  store ptr %6, ptr %7, align 8, !tbaa !8
  %8 = load ptr, ptr %4, align 8, !tbaa !8
  %9 = load ptr, ptr %8, align 8, !tbaa !8
  %10 = icmp ne ptr %9, null
  %11 = zext i1 %10 to i32
  ret i32 %11
}

; Function Attrs: mustprogress uwtable
define internal noundef i32 @_ZL13parse_versionv() #0 {
  %1 = alloca i32, align 4
  %2 = alloca ptr, align 8
  %3 = load ptr, ptr getelementptr inbounds nuw (%struct.anon.0, ptr @imgl3wProcs, i32 0, i32 34), align 8, !tbaa !14
  %4 = icmp ne ptr %3, null
  br i1 %4, label %6, label %5

5:                                                ; preds = %0
  store i32 -1, ptr %1, align 4
  br label %28

6:                                                ; preds = %0
  %7 = load ptr, ptr getelementptr inbounds nuw (%struct.anon.0, ptr @imgl3wProcs, i32 0, i32 34), align 8, !tbaa !14
  call void %7(i32 noundef 33307, ptr noundef @_ZL7version)
  %8 = load ptr, ptr getelementptr inbounds nuw (%struct.anon.0, ptr @imgl3wProcs, i32 0, i32 34), align 8, !tbaa !14
  call void %8(i32 noundef 33308, ptr noundef getelementptr inbounds nuw (%struct.anon, ptr @_ZL7version, i32 0, i32 1))
  %9 = load i32, ptr @_ZL7version, align 4, !tbaa !17
  %10 = icmp eq i32 %9, 0
  br i1 %10, label %11, label %23

11:                                               ; preds = %6
  %12 = load i32, ptr getelementptr inbounds nuw (%struct.anon, ptr @_ZL7version, i32 0, i32 1), align 4, !tbaa !19
  %13 = icmp eq i32 %12, 0
  br i1 %13, label %14, label %23

14:                                               ; preds = %11
  call void @llvm.lifetime.start.p0(i64 8, ptr %2) #11
  %15 = load ptr, ptr getelementptr inbounds nuw (%struct.anon.0, ptr @imgl3wProcs, i32 0, i32 39), align 8, !tbaa !14
  %16 = call noundef ptr %15(i32 noundef 7938)
  store ptr %16, ptr %2, align 8, !tbaa !10
  %17 = load ptr, ptr %2, align 8, !tbaa !10
  %18 = icmp ne ptr %17, null
  br i1 %18, label %19, label %22

19:                                               ; preds = %14
  %20 = load ptr, ptr %2, align 8, !tbaa !10
  %21 = call i32 (ptr, ptr, ...) @__isoc99_sscanf(ptr noundef %20, ptr noundef @.str.3, ptr noundef @_ZL7version, ptr noundef getelementptr inbounds nuw (%struct.anon, ptr @_ZL7version, i32 0, i32 1)) #11
  br label %22

22:                                               ; preds = %19, %14
  call void @llvm.lifetime.end.p0(i64 8, ptr %2) #11
  br label %23

23:                                               ; preds = %22, %11, %6
  %24 = load i32, ptr @_ZL7version, align 4, !tbaa !17
  %25 = icmp slt i32 %24, 2
  br i1 %25, label %26, label %27

26:                                               ; preds = %23
  store i32 -3, ptr %1, align 4
  br label %28

27:                                               ; preds = %23
  store i32 0, ptr %1, align 4
  br label %28

28:                                               ; preds = %27, %26, %5
  %29 = load i32, ptr %1, align 4
  ret i32 %29
}

; Function Attrs: mustprogress uwtable
define internal void @_ZL10load_procsPFPFvvEPKcE(ptr noundef %0) #0 {
  %2 = alloca ptr, align 8
  %3 = alloca i64, align 8
  store ptr %0, ptr %2, align 8, !tbaa !8
  call void @llvm.lifetime.start.p0(i64 8, ptr %3) #11
  store i64 0, ptr %3, align 8, !tbaa !12
  br label %4

4:                                                ; preds = %15, %1
  %5 = load i64, ptr %3, align 8, !tbaa !12
  %6 = icmp ult i64 %5, 59
  br i1 %6, label %7, label %18

7:                                                ; preds = %4
  %8 = load ptr, ptr %2, align 8, !tbaa !8
  %9 = load i64, ptr %3, align 8, !tbaa !12
  %10 = getelementptr inbounds nuw [59 x ptr], ptr @_ZL10proc_names, i64 0, i64 %9
  %11 = load ptr, ptr %10, align 8, !tbaa !10
  %12 = call noundef ptr %8(ptr noundef %11)
  %13 = load i64, ptr %3, align 8, !tbaa !12
  %14 = getelementptr inbounds nuw [59 x ptr], ptr @imgl3wProcs, i64 0, i64 %13
  store ptr %12, ptr %14, align 8, !tbaa !14
  br label %15

15:                                               ; preds = %7
  %16 = load i64, ptr %3, align 8, !tbaa !12
  %17 = add i64 %16, 1
  store i64 %17, ptr %3, align 8, !tbaa !12
  br label %4, !llvm.loop !15

18:                                               ; preds = %4
  call void @llvm.lifetime.end.p0(i64 8, ptr %3) #11
  ret void
}

; Function Attrs: mustprogress uwtable
define internal noundef i32 @_ZL9open_libsv() #0 {
  %1 = alloca i32, align 4
  store ptr null, ptr @_ZL5libgl, align 8, !tbaa !8
  store ptr null, ptr @_ZL6libegl, align 8, !tbaa !8
  store ptr null, ptr @_ZL6libglx, align 8, !tbaa !8
  %2 = call noundef i32 @_ZL17is_library_loadedPKcPPv(ptr noundef @.str.27, ptr noundef @_ZL6libegl)
  %3 = icmp ne i32 %2, 0
  br i1 %3, label %7, label %4

4:                                                ; preds = %0
  %5 = call noundef i32 @_ZL17is_library_loadedPKcPPv(ptr noundef @.str.28, ptr noundef @_ZL6libglx)
  %6 = icmp ne i32 %5, 0
  br i1 %6, label %7, label %14

7:                                                ; preds = %4, %0
  %8 = call ptr @dlopen(ptr noundef @.str.29, i32 noundef 1) #11
  store ptr %8, ptr @_ZL5libgl, align 8, !tbaa !8
  %9 = load ptr, ptr @_ZL5libgl, align 8, !tbaa !8
  %10 = icmp ne ptr %9, null
  br i1 %10, label %11, label %12

11:                                               ; preds = %7
  store i32 0, ptr %1, align 4
  br label %52

12:                                               ; preds = %7
  call void @_ZL11close_libglv()
  br label %13

13:                                               ; preds = %12
  br label %14

14:                                               ; preds = %13, %4
  %15 = call noundef i32 @_ZL17is_library_loadedPKcPPv(ptr noundef @.str.30, ptr noundef @_ZL5libgl)
  %16 = icmp ne i32 %15, 0
  br i1 %16, label %17, label %18

17:                                               ; preds = %14
  store i32 0, ptr %1, align 4
  br label %52

18:                                               ; preds = %14
  %19 = call noundef i32 @_ZL17is_library_loadedPKcPPv(ptr noundef @.str.31, ptr noundef @_ZL5libgl)
  %20 = icmp ne i32 %19, 0
  br i1 %20, label %21, label %22

21:                                               ; preds = %18
  store i32 0, ptr %1, align 4
  br label %52

22:                                               ; preds = %18
  %23 = call noundef i32 @_ZL17is_library_loadedPKcPPv(ptr noundef @.str.32, ptr noundef @_ZL5libgl)
  %24 = icmp ne i32 %23, 0
  br i1 %24, label %25, label %26

25:                                               ; preds = %22
  store i32 0, ptr %1, align 4
  br label %52

26:                                               ; preds = %22
  %27 = call ptr @dlopen(ptr noundef @.str.29, i32 noundef 1) #11
  store ptr %27, ptr @_ZL5libgl, align 8, !tbaa !8
  %28 = call ptr @dlopen(ptr noundef @.str.27, i32 noundef 1) #11
  store ptr %28, ptr @_ZL6libegl, align 8, !tbaa !8
  %29 = load ptr, ptr @_ZL5libgl, align 8, !tbaa !8
  %30 = icmp ne ptr %29, null
  br i1 %30, label %31, label %35

31:                                               ; preds = %26
  %32 = load ptr, ptr @_ZL6libegl, align 8, !tbaa !8
  %33 = icmp ne ptr %32, null
  br i1 %33, label %34, label %35

34:                                               ; preds = %31
  store i32 0, ptr %1, align 4
  br label %52

35:                                               ; preds = %31, %26
  call void @_ZL11close_libglv()
  br label %36

36:                                               ; preds = %35
  %37 = call ptr @dlopen(ptr noundef @.str.30, i32 noundef 1) #11
  store ptr %37, ptr @_ZL5libgl, align 8, !tbaa !8
  %38 = load ptr, ptr @_ZL5libgl, align 8, !tbaa !8
  %39 = icmp ne ptr %38, null
  br i1 %39, label %42, label %40

40:                                               ; preds = %36
  %41 = call ptr @dlopen(ptr noundef @.str.31, i32 noundef 1) #11
  store ptr %41, ptr @_ZL5libgl, align 8, !tbaa !8
  br label %42

42:                                               ; preds = %40, %36
  %43 = load ptr, ptr @_ZL5libgl, align 8, !tbaa !8
  %44 = icmp ne ptr %43, null
  br i1 %44, label %47, label %45

45:                                               ; preds = %42
  %46 = call ptr @dlopen(ptr noundef @.str.32, i32 noundef 1) #11
  store ptr %46, ptr @_ZL5libgl, align 8, !tbaa !8
  br label %47

47:                                               ; preds = %45, %42
  %48 = load ptr, ptr @_ZL5libgl, align 8, !tbaa !8
  %49 = icmp ne ptr %48, null
  br i1 %49, label %50, label %51

50:                                               ; preds = %47
  store i32 0, ptr %1, align 4
  br label %52

51:                                               ; preds = %47
  store i32 -2, ptr %1, align 4
  br label %52

52:                                               ; preds = %51, %50, %34, %25, %21, %17, %11
  %53 = load i32, ptr %1, align 4
  ret i32 %53
}

; Function Attrs: mustprogress uwtable
define dso_local i32 @imgl3wInit2(ptr noundef %0) #0 {
  %2 = alloca ptr, align 8
  store ptr %0, ptr %2, align 8, !tbaa !8
  %3 = load ptr, ptr %2, align 8, !tbaa !8
  call void @_ZL10load_procsPFPFvvEPKcE(ptr noundef %3)
  %4 = call noundef i32 @_ZL13parse_versionv()
  ret i32 %4
}

; Function Attrs: mustprogress uwtable
define internal noundef i32 @_ZL10open_libglv() #0 {
  %1 = alloca i32, align 4
  %2 = alloca i32, align 4
  %3 = alloca i32, align 4
  call void @llvm.lifetime.start.p0(i64 4, ptr %2) #11
  %4 = call noundef i32 @_ZL9open_libsv()
  store i32 %4, ptr %2, align 4, !tbaa !4
  %5 = load i32, ptr %2, align 4, !tbaa !4
  %6 = icmp ne i32 %5, 0
  br i1 %6, label %7, label %9

7:                                                ; preds = %0
  %8 = load i32, ptr %2, align 4, !tbaa !4
  store i32 %8, ptr %1, align 4
  store i32 1, ptr %3, align 4
  br label %30

9:                                                ; preds = %0
  %10 = load ptr, ptr @_ZL6libegl, align 8, !tbaa !8
  %11 = icmp ne ptr %10, null
  br i1 %11, label %12, label %15

12:                                               ; preds = %9
  %13 = load ptr, ptr @_ZL6libegl, align 8, !tbaa !8
  %14 = call ptr @dlsym(ptr noundef %13, ptr noundef @.str.25) #11
  store ptr %14, ptr @_ZL19gl_get_proc_address, align 8, !tbaa !8
  br label %25

15:                                               ; preds = %9
  %16 = load ptr, ptr @_ZL6libglx, align 8, !tbaa !8
  %17 = icmp ne ptr %16, null
  br i1 %17, label %18, label %21

18:                                               ; preds = %15
  %19 = load ptr, ptr @_ZL6libglx, align 8, !tbaa !8
  %20 = call ptr @dlsym(ptr noundef %19, ptr noundef @.str.26) #11
  store ptr %20, ptr @_ZL19gl_get_proc_address, align 8, !tbaa !8
  br label %24

21:                                               ; preds = %15
  %22 = load ptr, ptr @_ZL5libgl, align 8, !tbaa !8
  %23 = call ptr @dlsym(ptr noundef %22, ptr noundef @.str.26) #11
  store ptr %23, ptr @_ZL19gl_get_proc_address, align 8, !tbaa !8
  br label %24

24:                                               ; preds = %21, %18
  br label %25

25:                                               ; preds = %24, %12
  %26 = load ptr, ptr @_ZL19gl_get_proc_address, align 8, !tbaa !8
  %27 = icmp ne ptr %26, null
  br i1 %27, label %29, label %28

28:                                               ; preds = %25
  call void @_ZL11close_libglv()
  store i32 -2, ptr %1, align 4
  store i32 1, ptr %3, align 4
  br label %30

29:                                               ; preds = %25
  store i32 0, ptr %1, align 4
  store i32 1, ptr %3, align 4
  br label %30

30:                                               ; preds = %29, %28, %7
  call void @llvm.lifetime.end.p0(i64 4, ptr %2) #11
  %31 = load i32, ptr %1, align 4
  ret i32 %31
}

; Function Attrs: mustprogress uwtable
define dso_local i32 @imgl3wInit() #0 {
  %1 = alloca i32, align 4
  %2 = alloca i32, align 4
  %3 = alloca i32, align 4
  call void @llvm.lifetime.start.p0(i64 4, ptr %2) #11
  %4 = call noundef i32 @_ZL10open_libglv()
  store i32 %4, ptr %2, align 4, !tbaa !4
  %5 = load i32, ptr %2, align 4, !tbaa !4
  %6 = icmp ne i32 %5, 0
  br i1 %6, label %7, label %9

7:                                                ; preds = %0
  %8 = load i32, ptr %2, align 4, !tbaa !4
  store i32 %8, ptr %1, align 4
  store i32 1, ptr %3, align 4
  br label %12

9:                                                ; preds = %0
  %10 = call i32 @atexit(ptr noundef @_ZL11close_libglv) #11
  %11 = call i32 @imgl3wInit2(ptr noundef @_ZL8get_procPKc)
  store i32 %11, ptr %1, align 4
  store i32 1, ptr %3, align 4
  br label %12

12:                                               ; preds = %9, %7
  call void @llvm.lifetime.end.p0(i64 4, ptr %2) #11
  %13 = load i32, ptr %1, align 4
  ret i32 %13
}