; Function Attrs: mustprogress uwtable
define dso_local range(i32 -3, 1) i32 @imgl3wInit() local_unnamed_addr #0 {
  store ptr null, ptr @_ZL5libgl, align 8, !tbaa !4
  store ptr null, ptr @_ZL6libegl, align 8, !tbaa !4
  store ptr null, ptr @_ZL6libglx, align 8, !tbaa !4
  %1 = tail call ptr @dlopen(ptr noundef nonnull @.str.27, i32 noundef 5) #17
  store ptr %1, ptr @_ZL6libegl, align 8, !tbaa !4
  %.not11.i.i = icmp eq ptr %1, null
  br i1 %.not11.i.i, label %2, label %4

2:                                                ; preds = %0
  %3 = tail call ptr @dlopen(ptr noundef nonnull @.str.28, i32 noundef 5) #17
  store ptr %3, ptr @_ZL6libglx, align 8, !tbaa !4
  %.not.i.i = icmp eq ptr %3, null
  br i1 %.not.i.i, label %_ZL11close_libglv.exit.i.i, label %4

4:                                                ; preds = %2, %0
  %5 = tail call ptr @dlopen(ptr noundef nonnull @.str.29, i32 noundef 1) #17
  store ptr %5, ptr @_ZL5libgl, align 8, !tbaa !4
  %.not3.i.i = icmp eq ptr %5, null
  br i1 %.not3.i.i, label %6, label %32

6:                                                ; preds = %4
  %7 = load ptr, ptr @_ZL6libegl, align 8, !tbaa !4
  %.not3.i.i.i = icmp eq ptr %7, null
  br i1 %.not3.i.i.i, label %10, label %8

8:                                                ; preds = %6
  %9 = tail call i32 @dlclose(ptr noundef nonnull %7) #17
  store ptr null, ptr @_ZL6libegl, align 8, !tbaa !4
  br label %10

10:                                               ; preds = %8, %6
  %11 = load ptr, ptr @_ZL6libglx, align 8, !tbaa !4
  %.not4.i.i.i = icmp eq ptr %11, null
  br i1 %.not4.i.i.i, label %_ZL11close_libglv.exit.i.i, label %12

12:                                               ; preds = %10
  %13 = tail call i32 @dlclose(ptr noundef nonnull %11) #17
  store ptr null, ptr @_ZL6libglx, align 8, !tbaa !4
  br label %_ZL11close_libglv.exit.i.i

_ZL11close_libglv.exit.i.i:                       ; preds = %12, %10, %2
  %14 = tail call ptr @dlopen(ptr noundef nonnull @.str.30, i32 noundef 5) #17
  store ptr %14, ptr @_ZL5libgl, align 8, !tbaa !4
  %.not12.i.i = icmp eq ptr %14, null
  br i1 %.not12.i.i, label %15, label %32

15:                                               ; preds = %_ZL11close_libglv.exit.i.i
  %16 = tail call ptr @dlopen(ptr noundef nonnull @.str.31, i32 noundef 5) #17
  store ptr %16, ptr @_ZL5libgl, align 8, !tbaa !4
  %.not13.i.i = icmp eq ptr %16, null
  br i1 %.not13.i.i, label %17, label %32

17:                                               ; preds = %15
  %18 = tail call ptr @dlopen(ptr noundef nonnull @.str.32, i32 noundef 5) #17
  store ptr %18, ptr @_ZL5libgl, align 8, !tbaa !4
  %.not14.i.i = icmp eq ptr %18, null
  br i1 %.not14.i.i, label %19, label %32

19:                                               ; preds = %17
  %20 = tail call ptr @dlopen(ptr noundef nonnull @.str.29, i32 noundef 1) #17
  store ptr %20, ptr @_ZL5libgl, align 8, !tbaa !4
  %21 = tail call ptr @dlopen(ptr noundef nonnull @.str.27, i32 noundef 1) #17
  store ptr %21, ptr @_ZL6libegl, align 8, !tbaa !4
  %22 = load ptr, ptr @_ZL5libgl, align 8, !tbaa !4
  %23 = icmp ne ptr %22, null
  %24 = icmp ne ptr %21, null
  %or.cond.i.i = select i1 %23, i1 %24, i1 false
  br i1 %or.cond.i.i, label %.thread.i, label %25

25:                                               ; preds = %19
  tail call void @_ZL11close_libglv()
  %26 = tail call ptr @dlopen(ptr noundef nonnull @.str.30, i32 noundef 1) #17
  store ptr %26, ptr @_ZL5libgl, align 8, !tbaa !4
  %.not7.i.i = icmp eq ptr %26, null
  br i1 %.not7.i.i, label %27, label %32

27:                                               ; preds = %25
  %28 = tail call ptr @dlopen(ptr noundef nonnull @.str.31, i32 noundef 1) #17
  store ptr %28, ptr @_ZL5libgl, align 8, !tbaa !4
  %.not8.i.i = icmp eq ptr %28, null
  br i1 %.not8.i.i, label %29, label %32

29:                                               ; preds = %27
  %30 = tail call ptr @dlopen(ptr noundef nonnull @.str.32, i32 noundef 1) #17
  store ptr %30, ptr @_ZL5libgl, align 8, !tbaa !4
  %31 = icmp eq ptr %30, null
  br i1 %31, label %imgl3wInit2.exit, label %32

32:                                               ; preds = %29, %27, %25, %17, %15, %_ZL11close_libglv.exit.i.i, %4
  %33 = phi ptr [ %5, %4 ], [ %14, %_ZL11close_libglv.exit.i.i ], [ %16, %15 ], [ %18, %17 ], [ %26, %25 ], [ %30, %29 ], [ %28, %27 ]
  %.pr.i = load ptr, ptr @_ZL6libegl, align 8, !tbaa !4
  %.not6.i = icmp eq ptr %.pr.i, null
  br i1 %.not6.i, label %36, label %.thread.i

.thread.i:                                        ; preds = %32, %19
  %34 = phi ptr [ %.pr.i, %32 ], [ %21, %19 ]
  %35 = tail call ptr @dlsym(ptr noundef nonnull %34, ptr noundef nonnull @.str.25) #17
  br label %42

36:                                               ; preds = %32
  %37 = load ptr, ptr @_ZL6libglx, align 8, !tbaa !4
  %.not7.i = icmp eq ptr %37, null
  br i1 %.not7.i, label %40, label %38

38:                                               ; preds = %36
  %39 = tail call ptr @dlsym(ptr noundef nonnull %37, ptr noundef nonnull @.str.26) #17
  br label %42

40:                                               ; preds = %36
  %41 = tail call ptr @dlsym(ptr noundef nonnull %33, ptr noundef nonnull @.str.26) #17
  br label %42

42:                                               ; preds = %40, %38, %.thread.i
  %.sink.i = phi ptr [ %39, %38 ], [ %41, %40 ], [ %35, %.thread.i ]
  store ptr %.sink.i, ptr @_ZL19gl_get_proc_address, align 8, !tbaa !4
  %.not8.i = icmp eq ptr %.sink.i, null
  br i1 %.not8.i, label %43, label %_ZL10open_libglv.exit

43:                                               ; preds = %42
  %44 = load ptr, ptr @_ZL5libgl, align 8, !tbaa !4
  %.not.i9.i = icmp eq ptr %44, null
  br i1 %.not.i9.i, label %47, label %45

45:                                               ; preds = %43
  %46 = tail call i32 @dlclose(ptr noundef nonnull %44) #17
  store ptr null, ptr @_ZL5libgl, align 8, !tbaa !4
  br label %47

47:                                               ; preds = %45, %43
  %48 = load ptr, ptr @_ZL6libegl, align 8, !tbaa !4
  %.not3.i10.i = icmp eq ptr %48, null
  br i1 %.not3.i10.i, label %51, label %49

49:                                               ; preds = %47
  %50 = tail call i32 @dlclose(ptr noundef nonnull %48) #17
  store ptr null, ptr @_ZL6libegl, align 8, !tbaa !4
  br label %51

51:                                               ; preds = %49, %47
  %52 = load ptr, ptr @_ZL6libglx, align 8, !tbaa !4
  %.not4.i.i = icmp eq ptr %52, null
  br i1 %.not4.i.i, label %imgl3wInit2.exit, label %53

53:                                               ; preds = %51
  %54 = tail call i32 @dlclose(ptr noundef nonnull %52) #17
  store ptr null, ptr @_ZL6libglx, align 8, !tbaa !4
  br label %imgl3wInit2.exit

_ZL10open_libglv.exit:                            ; preds = %42
  %55 = tail call i32 @atexit(ptr noundef nonnull @_ZL11close_libglv) #17
  br label %56

56:                                               ; preds = %_ZL8get_procPKc.exit, %_ZL10open_libglv.exit
  %.04.i.i = phi i64 [ 0, %_ZL10open_libglv.exit ], [ %72, %_ZL8get_procPKc.exit ]
  %57 = getelementptr inbounds nuw [59 x ptr], ptr @_ZL10proc_names, i64 0, i64 %.04.i.i
  %58 = load ptr, ptr %57, align 8, !tbaa !8
  %59 = load ptr, ptr @_ZL6libegl, align 8, !tbaa !4
  %.not.i = icmp eq ptr %59, null
  br i1 %.not.i, label %.thread.i7, label %60

60:                                               ; preds = %56
  %61 = load ptr, ptr @_ZL5libgl, align 8, !tbaa !4
  %62 = tail call ptr @dlsym(ptr noundef %61, ptr noundef %58) #17
  %.not7.i6 = icmp eq ptr %62, null
  br i1 %.not7.i6, label %.thread.i7, label %_ZL8get_procPKc.exit

.thread.i7:                                       ; preds = %60, %56
  %63 = load ptr, ptr @_ZL19gl_get_proc_address, align 8, !tbaa !4
  %64 = tail call noundef ptr %63(ptr noundef %58)
  %65 = load ptr, ptr @_ZL6libegl, align 8, !tbaa !4
  %66 = icmp ne ptr %65, null
  %67 = icmp ne ptr %64, null
  %or.cond.i = or i1 %67, %66
  br i1 %or.cond.i, label %_ZL8get_procPKc.exit, label %68

68:                                               ; preds = %.thread.i7
  %69 = load ptr, ptr @_ZL5libgl, align 8, !tbaa !4
  %70 = tail call ptr @dlsym(ptr noundef %69, ptr noundef %58) #17
  br label %_ZL8get_procPKc.exit

_ZL8get_procPKc.exit:                             ; preds = %60, %.thread.i7, %68
  %.2.i = phi ptr [ %64, %.thread.i7 ], [ %70, %68 ], [ %62, %60 ]
  %71 = getelementptr inbounds nuw [59 x ptr], ptr @imgl3wProcs, i64 0, i64 %.04.i.i
  store ptr %.2.i, ptr %71, align 8, !tbaa !10
  %72 = add nuw nsw i64 %.04.i.i, 1
  %exitcond.not.i.i = icmp eq i64 %72, 59
  br i1 %exitcond.not.i.i, label %_ZL10load_procsPFPFvvEPKcE.exit.i, label %56, !llvm.loop !11

_ZL10load_procsPFPFvvEPKcE.exit.i:                ; preds = %_ZL8get_procPKc.exit
  %73 = load ptr, ptr getelementptr inbounds nuw (i8, ptr @imgl3wProcs, i64 272), align 8, !tbaa !10
  %.not.i.i4 = icmp eq ptr %73, null
  br i1 %.not.i.i4, label %imgl3wInit2.exit, label %74

74:                                               ; preds = %_ZL10load_procsPFPFvvEPKcE.exit.i
  tail call void %73(i32 noundef 33307, ptr noundef nonnull @_ZL7version)
  %75 = load ptr, ptr getelementptr inbounds nuw (i8, ptr @imgl3wProcs, i64 272), align 8, !tbaa !10
  tail call void %75(i32 noundef 33308, ptr noundef nonnull getelementptr inbounds nuw (i8, ptr @_ZL7version, i64 4))
  %76 = load i32, ptr @_ZL7version, align 4, !tbaa !13
  %77 = icmp eq i32 %76, 0
  %78 = load i32, ptr getelementptr inbounds nuw (i8, ptr @_ZL7version, i64 4), align 4
  %79 = icmp eq i32 %78, 0
  %or.cond.i.i5 = select i1 %77, i1 %79, i1 false
  br i1 %or.cond.i.i5, label %80, label %85

80:                                               ; preds = %74
  %81 = load ptr, ptr getelementptr inbounds nuw (i8, ptr @imgl3wProcs, i64 312), align 8, !tbaa !10
  %82 = tail call noundef ptr %81(i32 noundef 7938)
  %.not5.i.i = icmp eq ptr %82, null
  br i1 %.not5.i.i, label %85, label %83

83:                                               ; preds = %80
  %84 = tail call i32 (ptr, ptr, ...) @__isoc99_sscanf(ptr noundef nonnull %82, ptr noundef nonnull @.str.3, ptr noundef nonnull @_ZL7version, ptr noundef nonnull getelementptr inbounds nuw (i8, ptr @_ZL7version, i64 4)) #17
  br label %85

85:                                               ; preds = %83, %80, %74
  %86 = load i32, ptr @_ZL7version, align 4, !tbaa !13
  %87 = icmp slt i32 %86, 2
  %..i.i = select i1 %87, i32 -3, i32 0
  br label %imgl3wInit2.exit

imgl3wInit2.exit:                                 ; preds = %53, %51, %29, %85, %_ZL10load_procsPFPFvvEPKcE.exit.i
  %.0 = phi i32 [ -1, %_ZL10load_procsPFPFvvEPKcE.exit.i ], [ %..i.i, %85 ], [ -2, %29 ], [ -2, %51 ], [ -2, %53 ]
  ret i32 %.0
}